#include <math.h>
#include <stdio.h>
#include <stdlib.h>
#include <string.h>


int main()
{
    int n, i, j, p, sum;
    scanf("%d", &n);

    sum=0;
    for(i=1; i<=n; i++)
    {
        p=0;     
		j=i;
		if(j%7==0) p=1;
		else
		{
			while(j>=7)
			{
				if(j%10==7)
				{
					p=1;
			 	    break;
				}
                j=(j-j%10)/10;
			}
		    if(p==0) sum+=i*i;
		}
    }

    printf("%d\n", sum);
    return 0;
}