; ModuleID = '30/2020.c'
source_filename = "30/2020.c"
target datalayout = "e-m:e-p270:32:32-p271:32:32-p272:64:64-i64:64-f80:128-n8:16:32:64-S128"
target triple = "x86_64-pc-linux-gnu"

@.str = private unnamed_addr constant [3 x i8] c"%d\00", align 1
@.str.1 = private unnamed_addr constant [4 x i8] c"%d\0A\00", align 1

; Function Attrs: noinline nounwind uwtable
define dso_local i32 @main() #0 {
  %1 = alloca i32, align 4
  %2 = alloca i32, align 4
  %3 = alloca i32, align 4
  %4 = alloca i32, align 4
  %5 = alloca i32, align 4
  %6 = alloca i32, align 4
  store i32 0, i32* %1, align 4
  %7 = call i32 (i8*, ...) @__isoc99_scanf(i8* getelementptr inbounds ([3 x i8], [3 x i8]* @.str, i64 0, i64 0), i32* %2)
  store i32 0, i32* %6, align 4
  store i32 1, i32* %3, align 4
  br label %8

8:                                                ; preds = %44, %0
  %9 = load i32, i32* %3, align 4
  %10 = load i32, i32* %2, align 4
  %11 = icmp sle i32 %9, %10
  br i1 %11, label %12, label %47

12:                                               ; preds = %8
  store i32 0, i32* %5, align 4
  %13 = load i32, i32* %3, align 4
  store i32 %13, i32* %4, align 4
  %14 = load i32, i32* %4, align 4
  %15 = srem i32 %14, 7
  %16 = icmp eq i32 %15, 0
  br i1 %16, label %17, label %18

17:                                               ; preds = %12
  store i32 1, i32* %5, align 4
  br label %43

18:                                               ; preds = %12
  br label %19

19:                                               ; preds = %27, %18
  %20 = load i32, i32* %4, align 4
  %21 = icmp sge i32 %20, 7
  br i1 %21, label %22, label %33

22:                                               ; preds = %19
  %23 = load i32, i32* %4, align 4
  %24 = srem i32 %23, 10
  %25 = icmp eq i32 %24, 7
  br i1 %25, label %26, label %27

26:                                               ; preds = %22
  store i32 1, i32* %5, align 4
  br label %33

27:                                               ; preds = %22
  %28 = load i32, i32* %4, align 4
  %29 = load i32, i32* %4, align 4
  %30 = srem i32 %29, 10
  %31 = sub nsw i32 %28, %30
  %32 = sdiv i32 %31, 10
  store i32 %32, i32* %4, align 4
  br label %19

33:                                               ; preds = %26, %19
  %34 = load i32, i32* %5, align 4
  %35 = icmp eq i32 %34, 0
  br i1 %35, label %36, label %42

36:                                               ; preds = %33
  %37 = load i32, i32* %3, align 4
  %38 = load i32, i32* %3, align 4
  %39 = mul nsw i32 %37, %38
  %40 = load i32, i32* %6, align 4
  %41 = add nsw i32 %40, %39
  store i32 %41, i32* %6, align 4
  br label %42

42:                                               ; preds = %36, %33
  br label %43

43:                                               ; preds = %42, %17
  br label %44

44:                                               ; preds = %43
  %45 = load i32, i32* %3, align 4
  %46 = add nsw i32 %45, 1
  store i32 %46, i32* %3, align 4
  br label %8

47:                                               ; preds = %8
  %48 = load i32, i32* %6, align 4
  %49 = call i32 (i8*, ...) @printf(i8* getelementptr inbounds ([4 x i8], [4 x i8]* @.str.1, i64 0, i64 0), i32 %48)
  ret i32 0
}

declare dso_local i32 @__isoc99_scanf(i8*, ...) #1

declare dso_local i32 @printf(i8*, ...) #1


!llvm.module.flags = !{!0}
!llvm.ident = !{!1}

!0 = !{i32 1, !"wchar_size", i32 4}
!1 = !{!"clang version 10.0.0-4ubuntu1 "}
