; ModuleID = 'source-C-CXX/29/2020.c'
source_filename = "source-C-CXX/29/2020.c"
target datalayout = "e-m:e-p270:32:32-p271:32:32-p272:64:64-i64:64-f80:128-n8:16:32:64-S128"
target triple = "x86_64-pc-linux-gnu"

@.str = private unnamed_addr constant [3 x i8] c"%d\00", align 1
@.str.1 = private unnamed_addr constant [4 x i8] c"%d\0A\00", align 1

; Function Attrs: nofree nounwind sspstrong uwtable
define dso_local i32 @main() local_unnamed_addr #0 {
  %1 = alloca i32, align 4
  %2 = bitcast i32* %1 to i8*
  call void @llvm.lifetime.start.p0i8(i64 4, i8* nonnull %2) #3
  %3 = call i32 (i8*, ...) @__isoc99_scanf(i8* getelementptr inbounds ([3 x i8], [3 x i8]* @.str, i64 0, i64 0), i32* nonnull %1)
  %4 = load i32, i32* %1, align 4, !tbaa !5
  %5 = icmp slt i32 %4, 1
  br i1 %5, label %27, label %6

6:                                                ; preds = %0, %23
  %7 = phi i32 [ %24, %23 ], [ 0, %0 ]
  %8 = phi i32 [ %25, %23 ], [ 1, %0 ]
  %9 = urem i32 %8, 7
  %10 = icmp eq i32 %9, 0
  br i1 %10, label %23, label %11

11:                                               ; preds = %6
  %12 = icmp ugt i32 %8, 6
  br i1 %12, label %13, label %20

13:                                               ; preds = %11, %18
  %14 = phi i32 [ %16, %18 ], [ %8, %11 ]
  %15 = urem i32 %14, 10
  %16 = udiv i32 %14, 10
  %17 = icmp eq i32 %15, 7
  br i1 %17, label %23, label %18

18:                                               ; preds = %13
  %19 = icmp ugt i32 %14, 69
  br i1 %19, label %13, label %20, !llvm.loop !9

20:                                               ; preds = %18, %11
  %21 = mul nsw i32 %8, %8
  %22 = add nsw i32 %7, %21
  br label %23

23:                                               ; preds = %13, %6, %20
  %24 = phi i32 [ %22, %20 ], [ %7, %6 ], [ %7, %13 ]
  %25 = add nuw i32 %8, 1
  %26 = icmp eq i32 %8, %4
  br i1 %26, label %27, label %6, !llvm.loop !11

27:                                               ; preds = %23, %0
  %28 = phi i32 [ 0, %0 ], [ %24, %23 ]
  %29 = call i32 (i8*, ...) @printf(i8* nonnull dereferenceable(1) getelementptr inbounds ([4 x i8], [4 x i8]* @.str.1, i64 0, i64 0), i32 %28)
  call void @llvm.lifetime.end.p0i8(i64 4, i8* nonnull %2) #3
  ret i32 0
}

; Function Attrs: argmemonly mustprogress nofree nosync nounwind willreturn
declare void @llvm.lifetime.start.p0i8(i64 immarg, i8* nocapture) #1

; Function Attrs: nofree nounwind
declare noundef i32 @__isoc99_scanf(i8* nocapture noundef readonly, ...) local_unnamed_addr #2

; Function Attrs: nofree nounwind
declare noundef i32 @printf(i8* nocapture noundef readonly, ...) local_unnamed_addr #2

; Function Attrs: argmemonly mustprogress nofree nosync nounwind willreturn
declare void @llvm.lifetime.end.p0i8(i64 immarg, i8* nocapture) #1


!llvm.module.flags = !{!0, !1, !2, !3}
!llvm.ident = !{!4}

!0 = !{i32 1, !"wchar_size", i32 4}
!1 = !{i32 7, !"PIC Level", i32 2}
!2 = !{i32 7, !"PIE Level", i32 2}
!3 = !{i32 7, !"uwtable", i32 1}
!4 = !{!"clang version 13.0.0"}
!5 = !{!6, !6, i64 0}
!6 = !{!"int", !7, i64 0}
!7 = !{!"omnipotent char", !8, i64 0}
!8 = !{!"Simple C/C++ TBAA"}
!9 = distinct !{!9, !10}
!10 = !{!"llvm.loop.mustprogress"}
!11 = distinct !{!11, !10}
